; Function Attrs: cold nounwind optsize uwtable
define internal noundef i32 @decode_close(ptr noundef readonly captures(none) %0) #0 {
  %2 = getelementptr inbounds nuw i8, ptr %0, i64 32
  %3 = load ptr, ptr %2, align 8, !tbaa !4
  %4 = getelementptr inbounds nuw i8, ptr %3, i64 1352
  tail call void @ff_inflate_end(ptr noundef nonnull %4) #7
  %5 = getelementptr inbounds nuw i8, ptr %3, i64 1328
  tail call void @ff_vlc_free(ptr noundef nonnull %5) #7
  ret i32 0
}